
Allocating common symbols
Common symbol       size              file

pressure_val        0x4               pressure_sensor.o
ALARM_STATE_ID      0x1               Alarm.o
PM_STATE_ID         0x1               main.o
PS_STATE_ID         0x1               main.o

Memory Configuration

Name             Origin             Length             Attributes
flash            0x0000000008000000 0x0000000000020000 xr
sram             0x0000000020000000 0x0000000000005000 xrw
*default*        0x0000000000000000 0xffffffffffffffff

Linker script and memory map


.text           0x0000000008000000      0x3c4
 *(.vectors*)
 .vectors       0x0000000008000000       0x38 Startup.o
                0x0000000008000000                Vector
 *(.text*)
 .text          0x0000000008000038      0x134 Alarm.o
                0x0000000008000038                ST_ALARM_INIT
                0x0000000008000088                ST_ALARM_WAITING
                0x00000000080000ac                ST_ALARM_ON
                0x00000000080000d4                ST_ALARM_OFF
                0x00000000080000fc                Set_Alarm
                0x0000000008000134                Start_Alarm
                0x0000000008000150                Stop_Alarm
 .text          0x000000000800016c       0x24 main.o
                0x000000000800016c                main
 .text          0x0000000008000190       0xbc Pressure_Management.o
                0x0000000008000190                ST_RESET_ALARM
                0x00000000080001b4                ST_SETTING
                0x00000000080001ec                ST_SET_ALARM
                0x0000000008000210                ST_WAITING
 .text          0x000000000800024c       0xe8 pressure_sensor.o
                0x000000000800024c                get_pressure_values
                0x0000000008000260                read_pressure_values
                0x0000000008000278                ST_PS_INIT
                0x00000000080002c4                ST_Reading_Pressure
                0x00000000080002f4                ST_PS_WAITING
 .text          0x0000000008000334       0x90 Startup.o
                0x0000000008000334                IRQ0_Handler
                0x0000000008000334                PendSV_Handler
                0x0000000008000334                NMI_Handler
                0x0000000008000334                Sys_Tick_Handler
                0x0000000008000334                Bus_Fault_Handler
                0x0000000008000334                MM_Fault_Handler
                0x0000000008000334                SV_call_Handler
                0x0000000008000334                Default_Handler
                0x0000000008000334                IRQ2_Handler
                0x0000000008000334                Debug_reserved_Handler
                0x0000000008000334                IRQ1_Handler
                0x0000000008000334                Usage_Fault_Handler
                0x0000000008000334                Hard_Fault_Handler
                0x0000000008000340                Reset_Handler
                0x00000000080003c4                _E_TEXT = .

.glue_7         0x00000000080003c4        0x0
 .glue_7        0x00000000080003c4        0x0 linker stubs

.glue_7t        0x00000000080003c4        0x0
 .glue_7t       0x00000000080003c4        0x0 linker stubs

.vfp11_veneer   0x00000000080003c4        0x0
 .vfp11_veneer  0x00000000080003c4        0x0 linker stubs

.v4_bx          0x00000000080003c4        0x0
 .v4_bx         0x00000000080003c4        0x0 linker stubs

.iplt           0x00000000080003c4        0x0
 .iplt          0x00000000080003c4        0x0 Alarm.o

.rel.dyn        0x00000000080003c4        0x0
 .rel.iplt      0x00000000080003c4        0x0 Alarm.o

.data           0x0000000020000000        0xc load address 0x00000000080003c4
                0x0000000020000000                _S_DATA = .
 *(.data*)
 .data          0x0000000020000000        0x0 Alarm.o
 .data          0x0000000020000000        0xc main.o
                0x0000000020000000                ALARM_STATE
                0x0000000020000004                PS_STATE
                0x0000000020000008                PM_STATE
 .data          0x000000002000000c        0x0 Pressure_Management.o
 .data          0x000000002000000c        0x0 pressure_sensor.o
 .data          0x000000002000000c        0x0 Startup.o
                0x000000002000000c                . = ALIGN (0x4)
                0x000000002000000c                _E_DATA = .

.igot.plt       0x000000002000000c        0x0 load address 0x00000000080003d0
 .igot.plt      0x000000002000000c        0x0 Alarm.o

.bss            0x000000002000000c     0x1008 load address 0x00000000080003d0
                0x000000002000000c                _S_BSS = .
 *(.bss)
 .bss           0x000000002000000c        0x0 Alarm.o
 .bss           0x000000002000000c        0x0 main.o
 .bss           0x000000002000000c        0x0 Pressure_Management.o
 .bss           0x000000002000000c        0x0 pressure_sensor.o
 .bss           0x000000002000000c        0x0 Startup.o
                0x000000002000000c                . = ALIGN (0x4)
                0x000000002000000c                _E_BSS = .
                0x000000002000100c                . = (. + 0x1000)
 *fill*         0x000000002000000c     0x1000 
                0x000000002000100c                _stack_top = .
 COMMON         0x000000002000100c        0x1 Alarm.o
                0x000000002000100c                ALARM_STATE_ID
 COMMON         0x000000002000100d        0x2 main.o
                0x000000002000100d                PM_STATE_ID
                0x000000002000100e                PS_STATE_ID
 *fill*         0x000000002000100f        0x1 
 COMMON         0x0000000020001010        0x4 pressure_sensor.o
                0x0000000020001010                pressure_val

.rodata
 *(.rodata*)
LOAD Alarm.o
LOAD main.o
LOAD Pressure_Management.o
LOAD pressure_sensor.o
LOAD Startup.o
OUTPUT(Pressure_System.elf elf32-littlearm)

.debug_info     0x0000000000000000     0x2b7f
 .debug_info    0x0000000000000000      0xa9f Alarm.o
 .debug_info    0x0000000000000a9f      0xa74 main.o
 .debug_info    0x0000000000001513      0xa3b Pressure_Management.o
 .debug_info    0x0000000000001f4e      0xa8b pressure_sensor.o
 .debug_info    0x00000000000029d9      0x1a6 Startup.o

.debug_abbrev   0x0000000000000000      0x89b
 .debug_abbrev  0x0000000000000000      0x20b Alarm.o
 .debug_abbrev  0x000000000000020b      0x1b1 main.o
 .debug_abbrev  0x00000000000003bc      0x1dd Pressure_Management.o
 .debug_abbrev  0x0000000000000599      0x22c pressure_sensor.o
 .debug_abbrev  0x00000000000007c5       0xd6 Startup.o

.debug_loc      0x0000000000000000      0x4a0
 .debug_loc     0x0000000000000000      0x1c4 Alarm.o
 .debug_loc     0x00000000000001c4       0x2c main.o
 .debug_loc     0x00000000000001f0       0xe0 Pressure_Management.o
 .debug_loc     0x00000000000002d0      0x154 pressure_sensor.o
 .debug_loc     0x0000000000000424       0x7c Startup.o

.debug_aranges  0x0000000000000000       0xa0
 .debug_aranges
                0x0000000000000000       0x20 Alarm.o
 .debug_aranges
                0x0000000000000020       0x20 main.o
 .debug_aranges
                0x0000000000000040       0x20 Pressure_Management.o
 .debug_aranges
                0x0000000000000060       0x20 pressure_sensor.o
 .debug_aranges
                0x0000000000000080       0x20 Startup.o

.debug_line     0x0000000000000000      0xc18
 .debug_line    0x0000000000000000      0x2e2 Alarm.o
 .debug_line    0x00000000000002e2      0x220 main.o
 .debug_line    0x0000000000000502      0x22a Pressure_Management.o
 .debug_line    0x000000000000072c      0x2f8 pressure_sensor.o
 .debug_line    0x0000000000000a24      0x1f4 Startup.o

.debug_str      0x0000000000000000      0x70d
 .debug_str     0x0000000000000000      0x591 Alarm.o
                                        0x61e (size before relaxing)
 .debug_str     0x0000000000000591       0x36 main.o
                                        0x61f (size before relaxing)
 .debug_str     0x00000000000005c7       0x48 Pressure_Management.o
                                        0x5db (size before relaxing)
 .debug_str     0x000000000000060f       0x75 pressure_sensor.o
                                        0x624 (size before relaxing)
 .debug_str     0x0000000000000684       0x89 Startup.o
                                        0x210 (size before relaxing)

.comment        0x0000000000000000       0x7b
 .comment       0x0000000000000000       0x7b Alarm.o
                                         0x7c (size before relaxing)
 .comment       0x000000000000007b       0x7c main.o
 .comment       0x000000000000007b       0x7c Pressure_Management.o
 .comment       0x000000000000007b       0x7c pressure_sensor.o
 .comment       0x000000000000007b       0x7c Startup.o

.ARM.attributes
                0x0000000000000000       0x33
 .ARM.attributes
                0x0000000000000000       0x33 Alarm.o
 .ARM.attributes
                0x0000000000000033       0x33 main.o
 .ARM.attributes
                0x0000000000000066       0x33 Pressure_Management.o
 .ARM.attributes
                0x0000000000000099       0x33 pressure_sensor.o
 .ARM.attributes
                0x00000000000000cc       0x33 Startup.o

.debug_frame    0x0000000000000000      0x2ac
 .debug_frame   0x0000000000000000       0xf0 Alarm.o
 .debug_frame   0x00000000000000f0       0x2c main.o
 .debug_frame   0x000000000000011c       0x8c Pressure_Management.o
 .debug_frame   0x00000000000001a8       0xb4 pressure_sensor.o
 .debug_frame   0x000000000000025c       0x50 Startup.o
